; Function Attrs: mustprogress uwtable
define void @_ZN5folly13MemoryMappingC2EPKcllNS0_7OptionsE(ptr noundef nonnull align 8 dereferenceable(72) %0, ptr noundef %1, i64 noundef %2, i64 noundef %3, ptr noundef readonly byval(%"struct.folly::MemoryMapping::Options") align 8 captures(none) %4) unnamed_addr #7 align 2 personality ptr @__gxx_personality_v0 {
  %6 = alloca %"class.folly::File", align 4
  %7 = getelementptr inbounds nuw i8, ptr %4, i64 11
  %8 = load i8, ptr %7, align 1, !tbaa !20, !range !31, !noundef !32
  %9 = trunc nuw i8 %8 to i1
  %10 = select i1 %9, i32 2, i32 0
  call void @_ZN5folly4FileC1EPKcij(ptr noundef nonnull align 4 dereferenceable(5) %6, ptr noundef %1, i32 noundef %10, i32 noundef 438)
  invoke void @_ZN5folly13MemoryMappingC2ENS_4FileEllNS0_7OptionsE(ptr noundef nonnull align 8 dereferenceable(72) %0, ptr noundef nonnull %6, i64 noundef %2, i64 noundef %3, ptr noundef nonnull byval(%"struct.folly::MemoryMapping::Options") align 8 %4)
          to label %11 unwind label %12

11:                                               ; preds = %5
  call void @_ZN5folly4FileD1Ev(ptr noundef nonnull align 4 dereferenceable(5) %6) #20
  ret void

12:                                               ; preds = %5
  %13 = landingpad { ptr, i32 }
          cleanup
  call void @_ZN5folly4FileD1Ev(ptr noundef nonnull align 4 dereferenceable(5) %6) #20
  resume { ptr, i32 } %13
}